target datalayout = "e-m:e-p270:32:32-p271:32:32-p272:64:64-i64:64-i128:128-f80:128-n8:16:32:64-S128"
target triple = "x86_64-pc-linux-gnu"

; Function Attrs: nounwind uwtable
define internal i32 @func(ptr noundef %0, ptr noundef %1, ptr noundef %2) #0 {
  %4 = alloca ptr, align 8
  %5 = alloca ptr, align 8
  %6 = alloca ptr, align 8
  %7 = alloca double, align 8
  %8 = alloca double, align 8
  %9 = alloca double, align 8
  %10 = alloca double, align 8
  %11 = alloca double, align 8
  %12 = alloca double, align 8
  %13 = alloca double, align 8
  %14 = alloca double, align 8
  %15 = alloca double, align 8
  %16 = alloca double, align 8
  %17 = alloca double, align 8
  %18 = alloca ptr, align 8
  %19 = alloca ptr, align 8
  %20 = alloca i32, align 4
  %21 = alloca i32, align 4
  store ptr %0, ptr %4, align 8, !tbaa !4
  store ptr %1, ptr %5, align 8, !tbaa !4
  store ptr %2, ptr %6, align 8, !tbaa !9
  call void @llvm.lifetime.start.p0(i64 8, ptr %7) #5
  call void @llvm.lifetime.start.p0(i64 8, ptr %8) #5
  call void @llvm.lifetime.start.p0(i64 8, ptr %9) #5
  call void @llvm.lifetime.start.p0(i64 8, ptr %10) #5
  call void @llvm.lifetime.start.p0(i64 8, ptr %11) #5
  call void @llvm.lifetime.start.p0(i64 8, ptr %12) #5
  call void @llvm.lifetime.start.p0(i64 8, ptr %13) #5
  call void @llvm.lifetime.start.p0(i64 8, ptr %14) #5
  call void @llvm.lifetime.start.p0(i64 8, ptr %15) #5
  call void @llvm.lifetime.start.p0(i64 8, ptr %16) #5
  call void @llvm.lifetime.start.p0(i64 8, ptr %17) #5
  call void @llvm.lifetime.start.p0(i64 8, ptr %18) #5
  call void @llvm.lifetime.start.p0(i64 8, ptr %19) #5
  call void @llvm.lifetime.start.p0(i64 4, ptr %20) #5
  call void @llvm.lifetime.start.p0(i64 4, ptr %21) #5
  store double 3.125000e-02, ptr %7, align 8, !tbaa !16
  store double 3.125000e-02, ptr %8, align 8, !tbaa !16
  %22 = load double, ptr %7, align 8, !tbaa !16
  %23 = load double, ptr %7, align 8, !tbaa !16
  %24 = fmul double %22, %23
  %25 = fdiv double 1.000000e+00, %24
  store double %25, ptr %11, align 8, !tbaa !16
  %26 = load double, ptr %8, align 8, !tbaa !16
  %27 = load double, ptr %8, align 8, !tbaa !16
  %28 = fmul double %26, %27
  %29 = fdiv double 1.000000e+00, %28
  store double %29, ptr %12, align 8, !tbaa !16
  %30 = load ptr, ptr %4, align 8, !tbaa !4
  %31 = call ptr @N_VGetArrayPointer(ptr noundef %30)
  store ptr %31, ptr %18, align 8, !tbaa !24
  %32 = load ptr, ptr %5, align 8, !tbaa !4
  %33 = call ptr @N_VGetArrayPointer(ptr noundef %32)
  store ptr %33, ptr %19, align 8, !tbaa !24
  store i32 1, ptr %21, align 4, !tbaa !12
  br label %34

34:                                               ; preds = %159, %3
  %35 = load i32, ptr %21, align 4, !tbaa !12
  %36 = icmp sle i32 %35, 31
  br i1 %36, label %37, label %162

37:                                               ; preds = %34
  store i32 1, ptr %20, align 4, !tbaa !12
  br label %38

38:                                               ; preds = %155, %37
  %39 = load i32, ptr %20, align 4, !tbaa !12
  %40 = icmp sle i32 %39, 31
  br i1 %40, label %41, label %158

41:                                               ; preds = %38
  %42 = load ptr, ptr %18, align 8, !tbaa !24
  %43 = load i32, ptr %21, align 4, !tbaa !12
  %44 = sub nsw i32 %43, 1
  %45 = load i32, ptr %20, align 4, !tbaa !12
  %46 = sub nsw i32 %45, 1
  %47 = mul nsw i32 %46, 31
  %48 = add nsw i32 %44, %47
  %49 = sext i32 %48 to i64
  %50 = getelementptr inbounds double, ptr %42, i64 %49
  %51 = load double, ptr %50, align 8, !tbaa !16
  store double %51, ptr %13, align 8, !tbaa !16
  %52 = load i32, ptr %21, align 4, !tbaa !12
  %53 = icmp eq i32 %52, 1
  br i1 %53, label %54, label %55

54:                                               ; preds = %41
  br label %67

55:                                               ; preds = %41
  %56 = load ptr, ptr %18, align 8, !tbaa !24
  %57 = load i32, ptr %21, align 4, !tbaa !12
  %58 = sub nsw i32 %57, 1
  %59 = sub nsw i32 %58, 1
  %60 = load i32, ptr %20, align 4, !tbaa !12
  %61 = sub nsw i32 %60, 1
  %62 = mul nsw i32 %61, 31
  %63 = add nsw i32 %59, %62
  %64 = sext i32 %63 to i64
  %65 = getelementptr inbounds double, ptr %56, i64 %64
  %66 = load double, ptr %65, align 8, !tbaa !16
  br label %67

67:                                               ; preds = %55, %54
  %68 = phi double [ 0.000000e+00, %54 ], [ %66, %55 ]
  store double %68, ptr %14, align 8, !tbaa !16
  %69 = load i32, ptr %21, align 4, !tbaa !12
  %70 = icmp eq i32 %69, 31
  br i1 %70, label %71, label %72

71:                                               ; preds = %67
  br label %84

72:                                               ; preds = %67
  %73 = load ptr, ptr %18, align 8, !tbaa !24
  %74 = load i32, ptr %21, align 4, !tbaa !12
  %75 = add nsw i32 %74, 1
  %76 = sub nsw i32 %75, 1
  %77 = load i32, ptr %20, align 4, !tbaa !12
  %78 = sub nsw i32 %77, 1
  %79 = mul nsw i32 %78, 31
  %80 = add nsw i32 %76, %79
  %81 = sext i32 %80 to i64
  %82 = getelementptr inbounds double, ptr %73, i64 %81
  %83 = load double, ptr %82, align 8, !tbaa !16
  br label %84

84:                                               ; preds = %72, %71
  %85 = phi double [ 0.000000e+00, %71 ], [ %83, %72 ]
  store double %85, ptr %15, align 8, !tbaa !16
  %86 = load i32, ptr %20, align 4, !tbaa !12
  %87 = icmp eq i32 %86, 1
  br i1 %87, label %88, label %89

88:                                               ; preds = %84
  br label %101

89:                                               ; preds = %84
  %90 = load ptr, ptr %18, align 8, !tbaa !24
  %91 = load i32, ptr %21, align 4, !tbaa !12
  %92 = sub nsw i32 %91, 1
  %93 = load i32, ptr %20, align 4, !tbaa !12
  %94 = sub nsw i32 %93, 1
  %95 = sub nsw i32 %94, 1
  %96 = mul nsw i32 %95, 31
  %97 = add nsw i32 %92, %96
  %98 = sext i32 %97 to i64
  %99 = getelementptr inbounds double, ptr %90, i64 %98
  %100 = load double, ptr %99, align 8, !tbaa !16
  br label %101

101:                                              ; preds = %89, %88
  %102 = phi double [ 0.000000e+00, %88 ], [ %100, %89 ]
  store double %102, ptr %16, align 8, !tbaa !16
  %103 = load i32, ptr %20, align 4, !tbaa !12
  %104 = icmp eq i32 %103, 31
  br i1 %104, label %105, label %106

105:                                              ; preds = %101
  br label %118

106:                                              ; preds = %101
  %107 = load ptr, ptr %18, align 8, !tbaa !24
  %108 = load i32, ptr %21, align 4, !tbaa !12
  %109 = sub nsw i32 %108, 1
  %110 = load i32, ptr %20, align 4, !tbaa !12
  %111 = add nsw i32 %110, 1
  %112 = sub nsw i32 %111, 1
  %113 = mul nsw i32 %112, 31
  %114 = add nsw i32 %109, %113
  %115 = sext i32 %114 to i64
  %116 = getelementptr inbounds double, ptr %107, i64 %115
  %117 = load double, ptr %116, align 8, !tbaa !16
  br label %118

118:                                              ; preds = %106, %105
  %119 = phi double [ 0.000000e+00, %105 ], [ %117, %106 ]
  store double %119, ptr %17, align 8, !tbaa !16
  %120 = load double, ptr %11, align 8, !tbaa !16
  %121 = load double, ptr %16, align 8, !tbaa !16
  %122 = load double, ptr %13, align 8, !tbaa !16
  %123 = call double @llvm.fmuladd.f64(double -2.000000e+00, double %122, double %121)
  %124 = load double, ptr %17, align 8, !tbaa !16
  %125 = fadd double %123, %124
  %126 = fmul double %120, %125
  store double %126, ptr %9, align 8, !tbaa !16
  %127 = load double, ptr %12, align 8, !tbaa !16
  %128 = load double, ptr %15, align 8, !tbaa !16
  %129 = load double, ptr %13, align 8, !tbaa !16
  %130 = call double @llvm.fmuladd.f64(double -2.000000e+00, double %129, double %128)
  %131 = load double, ptr %14, align 8, !tbaa !16
  %132 = fadd double %130, %131
  %133 = fmul double %127, %132
  store double %133, ptr %10, align 8, !tbaa !16
  %134 = load double, ptr %9, align 8, !tbaa !16
  %135 = load double, ptr %10, align 8, !tbaa !16
  %136 = fadd double %134, %135
  %137 = load double, ptr %13, align 8, !tbaa !16
  %138 = fadd double %136, %137
  %139 = load double, ptr %13, align 8, !tbaa !16
  %140 = load double, ptr %13, align 8, !tbaa !16
  %141 = fmul double %139, %140
  %142 = load double, ptr %13, align 8, !tbaa !16
  %143 = fneg double %141
  %144 = call double @llvm.fmuladd.f64(double %143, double %142, double %138)
  %145 = fadd double %144, 2.000000e+00
  %146 = load ptr, ptr %19, align 8, !tbaa !24
  %147 = load i32, ptr %21, align 4, !tbaa !12
  %148 = sub nsw i32 %147, 1
  %149 = load i32, ptr %20, align 4, !tbaa !12
  %150 = sub nsw i32 %149, 1
  %151 = mul nsw i32 %150, 31
  %152 = add nsw i32 %148, %151
  %153 = sext i32 %152 to i64
  %154 = getelementptr inbounds double, ptr %146, i64 %153
  store double %145, ptr %154, align 8, !tbaa !16
  br label %155

155:                                              ; preds = %118
  %156 = load i32, ptr %20, align 4, !tbaa !12
  %157 = add nsw i32 %156, 1
  store i32 %157, ptr %20, align 4, !tbaa !12
  br label %38

158:                                              ; preds = %38
  br label %159

159:                                              ; preds = %158
  %160 = load i32, ptr %21, align 4, !tbaa !12
  %161 = add nsw i32 %160, 1
  store i32 %161, ptr %21, align 4, !tbaa !12
  br label %34

162:                                              ; preds = %34
  call void @llvm.lifetime.end.p0(i64 4, ptr %21) #5
  call void @llvm.lifetime.end.p0(i64 4, ptr %20) #5
  call void @llvm.lifetime.end.p0(i64 8, ptr %19) #5
  call void @llvm.lifetime.end.p0(i64 8, ptr %18) #5
  call void @llvm.lifetime.end.p0(i64 8, ptr %17) #5
  call void @llvm.lifetime.end.p0(i64 8, ptr %16) #5
  call void @llvm.lifetime.end.p0(i64 8, ptr %15) #5
  call void @llvm.lifetime.end.p0(i64 8, ptr %14) #5
  call void @llvm.lifetime.end.p0(i64 8, ptr %13) #5
  call void @llvm.lifetime.end.p0(i64 8, ptr %12) #5
  call void @llvm.lifetime.end.p0(i64 8, ptr %11) #5
  call void @llvm.lifetime.end.p0(i64 8, ptr %10) #5
  call void @llvm.lifetime.end.p0(i64 8, ptr %9) #5
  call void @llvm.lifetime.end.p0(i64 8, ptr %8) #5
  call void @llvm.lifetime.end.p0(i64 8, ptr %7) #5
  ret i32 0
}